; Function Attrs: mustprogress uwtable
define void @_ZN6icu_7518TransliteratorSpec5resetEv(ptr noundef nonnull align 8 dereferenceable(280) %this) local_unnamed_addr #1 align 2 {
entry:
  %spec = getelementptr inbounds i8, ptr %this, i64 72
  %top = getelementptr inbounds i8, ptr %this, i64 8
  %fUnion.i.i.i = getelementptr inbounds i8, ptr %this, i64 80
  %0 = load i16, ptr %fUnion.i.i.i, align 8
  %conv2.i14.i.i = and i16 %0, 1
  %tobool.not.i.i = icmp eq i16 %conv2.i14.i.i, 0
  br i1 %tobool.not.i.i, label %if.else.i.i, label %if.then.i.i

if.then.i.i:                                      ; preds = %entry
  %fUnion.i5.i.i = getelementptr inbounds i8, ptr %this, i64 16
  %1 = load i16, ptr %fUnion.i5.i.i, align 8
  %conv2.i615.i.i = and i16 %1, 1
  %tobool3.i.i.not = icmp eq i16 %conv2.i615.i.i, 0
  br i1 %tobool3.i.i.not, label %if.then, label %if.end

if.else.i.i:                                      ; preds = %entry
  %cmp.i.i.i.i = icmp slt i16 %0, 0
  %2 = ashr i16 %0, 5
  %shr.i.i.i.i = sext i16 %2 to i32
  %fLength.i.i.i = getelementptr inbounds i8, ptr %this, i64 84
  %3 = load i32, ptr %fLength.i.i.i, align 4
  %cond.i.i.i = select i1 %cmp.i.i.i.i, i32 %3, i32 %shr.i.i.i.i
  %fUnion.i.i7.i.i = getelementptr inbounds i8, ptr %this, i64 16
  %4 = load i16, ptr %fUnion.i.i7.i.i, align 8
  %cmp.i.i8.i.i = icmp slt i16 %4, 0
  %5 = ashr i16 %4, 5
  %shr.i.i9.i.i = sext i16 %5 to i32
  %fLength.i10.i.i = getelementptr inbounds i8, ptr %this, i64 20
  %6 = load i32, ptr %fLength.i10.i.i, align 4
  %cond.i11.i.i = select i1 %cmp.i.i8.i.i, i32 %6, i32 %shr.i.i9.i.i
  %conv2.i1316.i.i = and i16 %4, 1
  %tobool7.not.i.i = icmp eq i16 %conv2.i1316.i.i, 0
  %cmp.i.i = icmp eq i32 %cond.i.i.i, %cond.i11.i.i
  %or.cond.i.i = and i1 %tobool7.not.i.i, %cmp.i.i
  br i1 %or.cond.i.i, label %_ZNK6icu_7513UnicodeStringneERKS0_.exit, label %if.then

_ZNK6icu_7513UnicodeStringneERKS0_.exit:          ; preds = %if.else.i.i
  %call8.i.i = tail call noundef signext i8 @_ZNK6icu_7513UnicodeString8doEqualsERKS0_i(ptr noundef nonnull align 8 dereferenceable(64) %spec, ptr noundef nonnull align 8 dereferenceable(64) %top, i32 noundef %cond.i.i.i)
  %tobool9.i.i.not = icmp eq i8 %call8.i.i, 0
  br i1 %tobool9.i.i.not, label %if.then, label %if.end

if.then:                                          ; preds = %if.then.i.i, %if.else.i.i, %_ZNK6icu_7513UnicodeStringneERKS0_.exit
  %call4 = tail call noundef nonnull align 8 dereferenceable(64) ptr @_ZN6icu_7513UnicodeStringaSERKS0_(ptr noundef nonnull align 8 dereferenceable(64) %spec, ptr noundef nonnull align 8 dereferenceable(64) %top)
  %res = getelementptr inbounds i8, ptr %this, i64 272
  %7 = load ptr, ptr %res, align 8
  %cmp = icmp ne ptr %7, null
  %conv = zext i1 %cmp to i8
  %isSpecLocale = getelementptr inbounds i8, ptr %this, i64 264
  store i8 %conv, ptr %isSpecLocale, align 8
  tail call void @_ZN6icu_7518TransliteratorSpec9setupNextEv(ptr noundef nonnull align 8 dereferenceable(280) %this)
  br label %if.end

if.end:                                           ; preds = %if.then.i.i, %if.then, %_ZNK6icu_7513UnicodeStringneERKS0_.exit
  ret void
}